target datalayout = "e-m:e-p270:32:32-p271:32:32-p272:64:64-i64:64-i128:128-f80:128-n8:16:32:64-S128"
target triple = "x86_64-pc-linux-gnu"

%"struct.Luau::CodeGen::X64::RegisterX64" = type { i8 }
%"class.Luau::CodeGen::X64::AssemblyBuilderX64" = type <{ %"class.std::vector", %"class.std::vector", %"class.std::__cxx11::basic_string", i8, [3 x i8], i32, i32, [4 x i8], %"class.std::vector.3", %"class.std::vector.8", %"class.Luau::DenseHashMap", %"class.Luau::DenseHashMap.13", i8, [7 x i8], i64, ptr, ptr, i32, [4 x i8] }>
%"class.std::vector" = type { %"struct.std::_Vector_base" }
%"struct.std::_Vector_base" = type { %"struct.std::_Vector_base<unsigned char, std::allocator<unsigned char>>::_Vector_impl" }
%"struct.std::_Vector_base<unsigned char, std::allocator<unsigned char>>::_Vector_impl" = type { %"struct.std::_Vector_base<unsigned char, std::allocator<unsigned char>>::_Vector_impl_data" }
%"struct.std::_Vector_base<unsigned char, std::allocator<unsigned char>>::_Vector_impl_data" = type { ptr, ptr, ptr }
%"class.std::__cxx11::basic_string" = type { %"struct.std::__cxx11::basic_string<char>::_Alloc_hider", i64, %union.anon }
%"struct.std::__cxx11::basic_string<char>::_Alloc_hider" = type { ptr }
%union.anon = type { i64, [8 x i8] }
%"class.std::vector.3" = type { %"struct.std::_Vector_base.4" }
%"struct.std::_Vector_base.4" = type { %"struct.std::_Vector_base<Luau::CodeGen::Label, std::allocator<Luau::CodeGen::Label>>::_Vector_impl" }
%"struct.std::_Vector_base<Luau::CodeGen::Label, std::allocator<Luau::CodeGen::Label>>::_Vector_impl" = type { %"struct.std::_Vector_base<Luau::CodeGen::Label, std::allocator<Luau::CodeGen::Label>>::_Vector_impl_data" }
%"struct.std::_Vector_base<Luau::CodeGen::Label, std::allocator<Luau::CodeGen::Label>>::_Vector_impl_data" = type { ptr, ptr, ptr }
%"class.std::vector.8" = type { %"struct.std::_Vector_base.9" }
%"struct.std::_Vector_base.9" = type { %"struct.std::_Vector_base<unsigned int, std::allocator<unsigned int>>::_Vector_impl" }
%"struct.std::_Vector_base<unsigned int, std::allocator<unsigned int>>::_Vector_impl" = type { %"struct.std::_Vector_base<unsigned int, std::allocator<unsigned int>>::_Vector_impl_data" }
%"struct.std::_Vector_base<unsigned int, std::allocator<unsigned int>>::_Vector_impl_data" = type { ptr, ptr, ptr }
%"class.Luau::DenseHashMap" = type { %"class.Luau::detail::DenseHashTable" }
%"class.Luau::detail::DenseHashTable" = type <{ ptr, i64, i64, i32, [4 x i8] }>
%"class.Luau::DenseHashMap.13" = type { %"class.Luau::detail::DenseHashTable.14" }
%"class.Luau::detail::DenseHashTable.14" = type <{ ptr, i64, i64, i64, [8 x i8] }>
%"struct.Luau::CodeGen::X64::OperandX64" = type { i8, %"struct.Luau::CodeGen::X64::RegisterX64", %"struct.Luau::CodeGen::X64::RegisterX64", i8, i32 }

; Function Attrs: inlinehint mustprogress nounwind uwtable
define linkonce_odr dso_local noundef ptr @_Z8writeu32Phj(ptr noundef %0, i32 noundef %1) #3 comdat {
  %3 = alloca ptr, align 8
  %4 = alloca i32, align 4
  store ptr %0, ptr %3, align 8, !tbaa !80
  store i32 %1, ptr %4, align 4, !tbaa !48
  %5 = load ptr, ptr %3, align 8, !tbaa !80
  call void @llvm.memcpy.p0.p0.i64(ptr align 1 %5, ptr align 4 %4, i64 4, i1 false)
  %6 = load ptr, ptr %3, align 8, !tbaa !80
  %7 = getelementptr inbounds nuw i8, ptr %6, i64 4
  ret ptr %7
}

; Function Attrs: mustprogress uwtable
define dso_local void @_ZN4Luau7CodeGen3X6418AssemblyBuilderX646commitEv(ptr noundef nonnull align 8 dereferenceable(252) %0) #0 align 2 {
  %2 = alloca ptr, align 8
  store ptr %0, ptr %2, align 8, !tbaa !4
  %3 = load ptr, ptr %2, align 8
  %4 = getelementptr inbounds nuw %"class.Luau::CodeGen::X64::AssemblyBuilderX64", ptr %3, i32 0, i32 17
  %5 = load i32, ptr %4, align 8, !tbaa !54
  %6 = add i32 %5, 1
  store i32 %6, ptr %4, align 8, !tbaa !54
  %7 = getelementptr inbounds nuw %"class.Luau::CodeGen::X64::AssemblyBuilderX64", ptr %3, i32 0, i32 16
  %8 = load ptr, ptr %7, align 8, !tbaa !53
  %9 = getelementptr inbounds nuw %"class.Luau::CodeGen::X64::AssemblyBuilderX64", ptr %3, i32 0, i32 15
  %10 = load ptr, ptr %9, align 8, !tbaa !52
  %11 = ptrtoint ptr %8 to i64
  %12 = ptrtoint ptr %10 to i64
  %13 = sub i64 %11, %12
  %14 = trunc i64 %13 to i32
  %15 = icmp ult i32 %14, 16
  br i1 %15, label %16, label %17

16:                                               ; preds = %1
  call void @_ZN4Luau7CodeGen3X6418AssemblyBuilderX646extendEv(ptr noundef nonnull align 8 dereferenceable(252) %3)
  br label %17

17:                                               ; preds = %16, %1
  ret void
}

; Function Attrs: mustprogress uwtable
define dso_local void @_ZN4Luau7CodeGen3X6418AssemblyBuilderX6410placeImm32Ei(ptr noundef nonnull align 8 dereferenceable(252) %0, i32 noundef %1) #0 align 2 {
  %3 = alloca ptr, align 8
  %4 = alloca i32, align 4
  %5 = alloca ptr, align 8
  store ptr %0, ptr %3, align 8, !tbaa !4
  store i32 %1, ptr %4, align 4, !tbaa !48
  %6 = load ptr, ptr %3, align 8
  call void @llvm.lifetime.start.p0(i64 8, ptr %5) #17
  %7 = getelementptr inbounds nuw %"class.Luau::CodeGen::X64::AssemblyBuilderX64", ptr %6, i32 0, i32 15
  %8 = load ptr, ptr %7, align 8, !tbaa !52
  store ptr %8, ptr %5, align 8, !tbaa !80
  %9 = load ptr, ptr %5, align 8, !tbaa !80
  %10 = load i32, ptr %4, align 4, !tbaa !48
  %11 = call noundef ptr @_Z8writeu32Phj(ptr noundef %9, i32 noundef %10)
  %12 = getelementptr inbounds nuw %"class.Luau::CodeGen::X64::AssemblyBuilderX64", ptr %6, i32 0, i32 15
  store ptr %11, ptr %12, align 8, !tbaa !52
  call void @llvm.lifetime.end.p0(i64 8, ptr %5) #17
  ret void
}

; Function Attrs: mustprogress uwtable
define dso_local void @_ZN4Luau7CodeGen3X6418AssemblyBuilderX649placeImm8Ei(ptr noundef nonnull align 8 dereferenceable(252) %0, i32 noundef %1) #0 align 2 {
  %3 = alloca ptr, align 8
  %4 = alloca i32, align 4
  %5 = alloca i8, align 1
  store ptr %0, ptr %3, align 8, !tbaa !4
  store i32 %1, ptr %4, align 4, !tbaa !48
  %6 = load ptr, ptr %3, align 8
  call void @llvm.lifetime.start.p0(i64 1, ptr %5) #17
  %7 = load i32, ptr %4, align 4, !tbaa !48
  %8 = trunc i32 %7 to i8
  store i8 %8, ptr %5, align 1, !tbaa !79
  %9 = load i8, ptr %5, align 1, !tbaa !79
  call void @_ZN4Luau7CodeGen3X6418AssemblyBuilderX645placeEh(ptr noundef nonnull align 8 dereferenceable(252) %6, i8 noundef zeroext %9)
  call void @llvm.lifetime.end.p0(i64 1, ptr %5) #17
  ret void
}

; Function Attrs: mustprogress nounwind uwtable
define dso_local void @_ZN4Luau7CodeGen3X6418AssemblyBuilderX645placeEh(ptr noundef nonnull align 8 dereferenceable(252) %0, i8 noundef zeroext %1) #1 align 2 {
  %3 = alloca ptr, align 8
  %4 = alloca i8, align 1
  store ptr %0, ptr %3, align 8, !tbaa !4
  store i8 %1, ptr %4, align 1, !tbaa !79
  %5 = load ptr, ptr %3, align 8
  %6 = load i8, ptr %4, align 1, !tbaa !79
  %7 = getelementptr inbounds nuw %"class.Luau::CodeGen::X64::AssemblyBuilderX64", ptr %5, i32 0, i32 15
  %8 = load ptr, ptr %7, align 8, !tbaa !52
  %9 = getelementptr inbounds nuw i8, ptr %8, i32 1
  store ptr %9, ptr %7, align 8, !tbaa !52
  store i8 %6, ptr %8, align 1, !tbaa !79
  ret void
}

; Function Attrs: mustprogress uwtable
define dso_local void @_ZN4Luau7CodeGen3X6418AssemblyBuilderX648placeRexENS1_10OperandX64E(ptr noundef nonnull align 8 dereferenceable(252) %0, i64 %1) #0 align 2 {
  %3 = alloca %"struct.Luau::CodeGen::X64::OperandX64", align 4
  %4 = alloca ptr, align 8
  %5 = alloca i8, align 1
  store i64 %1, ptr %3, align 4
  store ptr %0, ptr %4, align 8, !tbaa !4
  %6 = load ptr, ptr %4, align 8
  call void @llvm.lifetime.start.p0(i64 1, ptr %5) #17
  store i8 0, ptr %5, align 1, !tbaa !79
  %7 = getelementptr inbounds nuw %"struct.Luau::CodeGen::X64::OperandX64", ptr %3, i32 0, i32 0
  %8 = load i8, ptr %7, align 4, !tbaa !81
  %9 = icmp eq i8 %8, 0
  br i1 %9, label %10, label %39

10:                                               ; preds = %2
  %11 = getelementptr inbounds nuw %"struct.Luau::CodeGen::X64::OperandX64", ptr %3, i32 0, i32 2
  %12 = load i8, ptr %11, align 2
  %13 = and i8 %12, 7
  %14 = icmp eq i8 %13, 4
  br i1 %14, label %28, label %15

15:                                               ; preds = %10
  %16 = getelementptr inbounds nuw %"struct.Luau::CodeGen::X64::OperandX64", ptr %3, i32 0, i32 2
  %17 = load i8, ptr %16, align 2
  %18 = and i8 %17, 7
  %19 = icmp eq i8 %18, 1
  br i1 %19, label %20, label %26

20:                                               ; preds = %15
  %21 = getelementptr inbounds nuw %"struct.Luau::CodeGen::X64::OperandX64", ptr %3, i32 0, i32 2
  %22 = load i8, ptr %21, align 2
  %23 = lshr i8 %22, 3
  %24 = zext i8 %23 to i32
  %25 = icmp sge i32 %24, 4
  br label %26

26:                                               ; preds = %20, %15
  %27 = phi i1 [ false, %15 ], [ %25, %20 ]
  br label %28

28:                                               ; preds = %26, %10
  %29 = phi i1 [ true, %10 ], [ %27, %26 ]
  %30 = select i1 %29, i32 8, i32 0
  %31 = getelementptr inbounds nuw %"struct.Luau::CodeGen::X64::OperandX64", ptr %3, i32 0, i32 2
  %32 = load i8, ptr %31, align 2
  %33 = lshr i8 %32, 3
  %34 = zext i8 %33 to i32
  %35 = and i32 %34, 8
  %36 = ashr i32 %35, 3
  %37 = or i32 %30, %36
  %38 = trunc i32 %37 to i8
  store i8 %38, ptr %5, align 1, !tbaa !79
  br label %66

39:                                               ; preds = %2
  %40 = getelementptr inbounds nuw %"struct.Luau::CodeGen::X64::OperandX64", ptr %3, i32 0, i32 0
  %41 = load i8, ptr %40, align 4, !tbaa !81
  %42 = icmp eq i8 %41, 1
  br i1 %42, label %43, label %64

43:                                               ; preds = %39
  %44 = getelementptr inbounds nuw %"struct.Luau::CodeGen::X64::OperandX64", ptr %3, i32 0, i32 3
  %45 = load i8, ptr %44, align 1
  %46 = and i8 %45, 15
  %47 = icmp eq i8 %46, 4
  %48 = select i1 %47, i32 8, i32 0
  %49 = getelementptr inbounds nuw %"struct.Luau::CodeGen::X64::OperandX64", ptr %3, i32 0, i32 1
  %50 = load i8, ptr %49, align 1
  %51 = lshr i8 %50, 3
  %52 = zext i8 %51 to i32
  %53 = and i32 %52, 8
  %54 = ashr i32 %53, 2
  %55 = or i32 %48, %54
  %56 = getelementptr inbounds nuw %"struct.Luau::CodeGen::X64::OperandX64", ptr %3, i32 0, i32 2
  %57 = load i8, ptr %56, align 2
  %58 = lshr i8 %57, 3
  %59 = zext i8 %58 to i32
  %60 = and i32 %59, 8
  %61 = ashr i32 %60, 3
  %62 = or i32 %55, %61
  %63 = trunc i32 %62 to i8
  store i8 %63, ptr %5, align 1, !tbaa !79
  br label %65

64:                                               ; preds = %39
  br label %65

65:                                               ; preds = %64, %43
  br label %66

66:                                               ; preds = %65, %28
  %67 = load i8, ptr %5, align 1, !tbaa !79
  %68 = zext i8 %67 to i32
  %69 = icmp ne i32 %68, 0
  br i1 %69, label %70, label %75

70:                                               ; preds = %66
  %71 = load i8, ptr %5, align 1, !tbaa !79
  %72 = zext i8 %71 to i32
  %73 = or i32 %72, 64
  %74 = trunc i32 %73 to i8
  call void @_ZN4Luau7CodeGen3X6418AssemblyBuilderX645placeEh(ptr noundef nonnull align 8 dereferenceable(252) %6, i8 noundef zeroext %74)
  br label %75

75:                                               ; preds = %70, %66
  call void @llvm.lifetime.end.p0(i64 1, ptr %5) #17
  ret void
}

; Function Attrs: mustprogress uwtable
define dso_local void @_ZN4Luau7CodeGen3X6418AssemblyBuilderX6423placeBinaryRegMemAndImmENS1_10OperandX64ES3_hhhh(ptr noundef nonnull align 8 dereferenceable(252) %0, i64 %1, i64 %2, i8 noundef zeroext %3, i8 noundef zeroext %4, i8 noundef zeroext %5, i8 noundef zeroext %6) #0 align 2 {
  %8 = alloca %"struct.Luau::CodeGen::X64::OperandX64", align 4
  %9 = alloca %"struct.Luau::CodeGen::X64::OperandX64", align 4
  %10 = alloca ptr, align 8
  %11 = alloca i8, align 1
  %12 = alloca i8, align 1
  %13 = alloca i8, align 1
  %14 = alloca i8, align 1
  %15 = alloca i8, align 1
  %16 = alloca %"struct.Luau::CodeGen::X64::OperandX64", align 4
  %17 = alloca %"struct.Luau::CodeGen::X64::OperandX64", align 4
  %18 = alloca %"struct.Luau::CodeGen::X64::OperandX64", align 4
  %19 = alloca %"struct.Luau::CodeGen::X64::OperandX64", align 4
  store i64 %1, ptr %8, align 4
  store i64 %2, ptr %9, align 4
  store ptr %0, ptr %10, align 8, !tbaa !4
  store i8 %3, ptr %11, align 1, !tbaa !79
  store i8 %4, ptr %12, align 1, !tbaa !79
  store i8 %5, ptr %13, align 1, !tbaa !79
  store i8 %6, ptr %14, align 1, !tbaa !79
  %20 = load ptr, ptr %10, align 8
  call void @llvm.lifetime.start.p0(i64 1, ptr %15) #17
  %21 = getelementptr inbounds nuw %"struct.Luau::CodeGen::X64::OperandX64", ptr %8, i32 0, i32 0
  %22 = load i8, ptr %21, align 4, !tbaa !81
  %23 = icmp eq i8 %22, 0
  br i1 %23, label %24, label %28

24:                                               ; preds = %7
  %25 = getelementptr inbounds nuw %"struct.Luau::CodeGen::X64::OperandX64", ptr %8, i32 0, i32 2
  %26 = load i8, ptr %25, align 2
  %27 = and i8 %26, 7
  br label %32

28:                                               ; preds = %7
  %29 = getelementptr inbounds nuw %"struct.Luau::CodeGen::X64::OperandX64", ptr %8, i32 0, i32 3
  %30 = load i8, ptr %29, align 1
  %31 = and i8 %30, 15
  br label %32

32:                                               ; preds = %28, %24
  %33 = phi i8 [ %27, %24 ], [ %31, %28 ]
  store i8 %33, ptr %15, align 1, !tbaa !85
  call void @llvm.memcpy.p0.p0.i64(ptr align 4 %16, ptr align 4 %8, i64 8, i1 false), !tbaa.struct !76
  %34 = load i64, ptr %16, align 4
  call void @_ZN4Luau7CodeGen3X6418AssemblyBuilderX648placeRexENS1_10OperandX64E(ptr noundef nonnull align 8 dereferenceable(252) %20, i64 %34)
  %35 = load i8, ptr %15, align 1, !tbaa !85
  %36 = icmp eq i8 %35, 1
  br i1 %36, label %37, label %43

37:                                               ; preds = %32
  %38 = load i8, ptr %11, align 1, !tbaa !79
  call void @_ZN4Luau7CodeGen3X6418AssemblyBuilderX645placeEh(ptr noundef nonnull align 8 dereferenceable(252) %20, i8 noundef zeroext %38)
  call void @llvm.memcpy.p0.p0.i64(ptr align 4 %17, ptr align 4 %8, i64 8, i1 false), !tbaa.struct !76
  %39 = load i8, ptr %14, align 1, !tbaa !79
  %40 = load i64, ptr %17, align 4
  call void @_ZN4Luau7CodeGen3X6418AssemblyBuilderX6414placeModRegMemENS1_10OperandX64Ehi(ptr noundef nonnull align 8 dereferenceable(252) %20, i64 %40, i8 noundef zeroext %39, i32 noundef 1)
  %41 = getelementptr inbounds nuw %"struct.Luau::CodeGen::X64::OperandX64", ptr %9, i32 0, i32 4
  %42 = load i32, ptr %41, align 4, !tbaa !87
  call void @_ZN4Luau7CodeGen3X6418AssemblyBuilderX649placeImm8Ei(ptr noundef nonnull align 8 dereferenceable(252) %20, i32 noundef %42)
  br label %70

43:                                               ; preds = %32
  %44 = getelementptr inbounds nuw %"struct.Luau::CodeGen::X64::OperandX64", ptr %9, i32 0, i32 4
  %45 = load i32, ptr %44, align 4, !tbaa !87
  %46 = trunc i32 %45 to i8
  %47 = sext i8 %46 to i32
  %48 = getelementptr inbounds nuw %"struct.Luau::CodeGen::X64::OperandX64", ptr %9, i32 0, i32 4
  %49 = load i32, ptr %48, align 4, !tbaa !87
  %50 = icmp eq i32 %47, %49
  br i1 %50, label %51, label %63

51:                                               ; preds = %43
  %52 = load i8, ptr %12, align 1, !tbaa !79
  %53 = zext i8 %52 to i32
  %54 = load i8, ptr %13, align 1, !tbaa !79
  %55 = zext i8 %54 to i32
  %56 = icmp ne i32 %53, %55
  br i1 %56, label %57, label %63

57:                                               ; preds = %51
  %58 = load i8, ptr %13, align 1, !tbaa !79
  call void @_ZN4Luau7CodeGen3X6418AssemblyBuilderX645placeEh(ptr noundef nonnull align 8 dereferenceable(252) %20, i8 noundef zeroext %58)
  call void @llvm.memcpy.p0.p0.i64(ptr align 4 %18, ptr align 4 %8, i64 8, i1 false), !tbaa.struct !76
  %59 = load i8, ptr %14, align 1, !tbaa !79
  %60 = load i64, ptr %18, align 4
  call void @_ZN4Luau7CodeGen3X6418AssemblyBuilderX6414placeModRegMemENS1_10OperandX64Ehi(ptr noundef nonnull align 8 dereferenceable(252) %20, i64 %60, i8 noundef zeroext %59, i32 noundef 1)
  %61 = getelementptr inbounds nuw %"struct.Luau::CodeGen::X64::OperandX64", ptr %9, i32 0, i32 4
  %62 = load i32, ptr %61, align 4, !tbaa !87
  call void @_ZN4Luau7CodeGen3X6418AssemblyBuilderX649placeImm8Ei(ptr noundef nonnull align 8 dereferenceable(252) %20, i32 noundef %62)
  br label %69

63:                                               ; preds = %51, %43
  %64 = load i8, ptr %12, align 1, !tbaa !79
  call void @_ZN4Luau7CodeGen3X6418AssemblyBuilderX645placeEh(ptr noundef nonnull align 8 dereferenceable(252) %20, i8 noundef zeroext %64)
  call void @llvm.memcpy.p0.p0.i64(ptr align 4 %19, ptr align 4 %8, i64 8, i1 false), !tbaa.struct !76
  %65 = load i8, ptr %14, align 1, !tbaa !79
  %66 = load i64, ptr %19, align 4
  call void @_ZN4Luau7CodeGen3X6418AssemblyBuilderX6414placeModRegMemENS1_10OperandX64Ehi(ptr noundef nonnull align 8 dereferenceable(252) %20, i64 %66, i8 noundef zeroext %65, i32 noundef 4)
  %67 = getelementptr inbounds nuw %"struct.Luau::CodeGen::X64::OperandX64", ptr %9, i32 0, i32 4
  %68 = load i32, ptr %67, align 4, !tbaa !87
  call void @_ZN4Luau7CodeGen3X6418AssemblyBuilderX6410placeImm32Ei(ptr noundef nonnull align 8 dereferenceable(252) %20, i32 noundef %68)
  br label %69

69:                                               ; preds = %63, %57
  br label %70

70:                                               ; preds = %69, %37
  call void @_ZN4Luau7CodeGen3X6418AssemblyBuilderX646commitEv(ptr noundef nonnull align 8 dereferenceable(252) %20)
  call void @llvm.lifetime.end.p0(i64 1, ptr %15) #17
  ret void
}