; Function Attrs: mustprogress uwtable
define dso_local void @_ZN4Luau7CodeGen3X6418AssemblyBuilderX6423placeBinaryRegMemAndImmENS1_10OperandX64ES3_hhhh(ptr noundef nonnull align 8 dereferenceable(252) %0, i64 %1, i64 %2, i8 noundef zeroext %3, i8 noundef zeroext %4, i8 noundef zeroext %5, i8 noundef zeroext %6) local_unnamed_addr #0 align 2 {
  %.sroa.639.0.extract.shift = lshr i64 %1, 16
  %.sroa.639.0.extract.trunc = trunc i64 %.sroa.639.0.extract.shift to i8
  %.sroa.7.0.extract.shift = lshr i64 %1, 24
  %.sroa.7.0.extract.trunc = trunc i64 %.sroa.7.0.extract.shift to i8
  %.sroa.1.0.extract.shift = lshr i64 %2, 32
  %.sroa.1.0.extract.trunc = trunc nuw i64 %.sroa.1.0.extract.shift to i32
  %8 = and i64 %1, 255
  %9 = icmp eq i64 %8, 0
  %10 = and i8 %.sroa.639.0.extract.trunc, 7
  %11 = and i8 %.sroa.7.0.extract.trunc, 15
  %12 = select i1 %9, i8 %10, i8 %11
  %.sroa.0.0.extract.trunc.i = trunc i64 %1 to i8
  switch i8 %.sroa.0.0.extract.trunc.i, label %_ZN4Luau7CodeGen3X6418AssemblyBuilderX648placeRexENS1_10OperandX64E.exit [
    i8 0, label %13
    i8 1, label %23
  ]

13:                                               ; preds = %7
  %14 = icmp eq i8 %10, 4
  %15 = icmp eq i8 %10, 1
  %16 = icmp ugt i8 %.sroa.639.0.extract.trunc, 31
  %17 = and i1 %16, %15
  %18 = or i1 %14, %17
  %19 = select i1 %18, i8 8, i8 0
  %20 = lshr i8 %.sroa.639.0.extract.trunc, 6
  %21 = and i8 %20, 1
  %22 = or disjoint i8 %19, %21
  br label %35

23:                                               ; preds = %7
  %24 = and i64 %1, 251658240
  %25 = icmp eq i64 %24, 67108864
  %26 = select i1 %25, i32 8, i32 0
  %27 = trunc i64 %1 to i32
  %28 = lshr i32 %27, 13
  %29 = and i32 %28, 2
  %30 = or disjoint i32 %26, %29
  %31 = lshr i8 %.sroa.639.0.extract.trunc, 6
  %32 = and i8 %31, 1
  %33 = trunc nuw nsw i32 %30 to i8
  %34 = or disjoint i8 %32, %33
  br label %35

35:                                               ; preds = %23, %13
  %.0.i = phi i8 [ %22, %13 ], [ %34, %23 ]
  %.not.i = icmp eq i8 %.0.i, 0
  br i1 %.not.i, label %_ZN4Luau7CodeGen3X6418AssemblyBuilderX648placeRexENS1_10OperandX64E.exit, label %36

36:                                               ; preds = %35
  %37 = or i8 %.0.i, 64
  %38 = getelementptr inbounds nuw i8, ptr %0, i64 232
  %39 = load ptr, ptr %38, align 8, !tbaa !51
  %40 = getelementptr inbounds nuw i8, ptr %39, i64 1
  store ptr %40, ptr %38, align 8, !tbaa !51
  store i8 %37, ptr %39, align 1, !tbaa !13
  br label %_ZN4Luau7CodeGen3X6418AssemblyBuilderX648placeRexENS1_10OperandX64E.exit

_ZN4Luau7CodeGen3X6418AssemblyBuilderX648placeRexENS1_10OperandX64E.exit: ; preds = %7, %35, %36
  %41 = icmp eq i8 %12, 1
  br i1 %41, label %42, label %49

42:                                               ; preds = %_ZN4Luau7CodeGen3X6418AssemblyBuilderX648placeRexENS1_10OperandX64E.exit
  %43 = getelementptr inbounds nuw i8, ptr %0, i64 232
  %44 = load ptr, ptr %43, align 8, !tbaa !51
  %45 = getelementptr inbounds nuw i8, ptr %44, i64 1
  store ptr %45, ptr %43, align 8, !tbaa !51
  store i8 %3, ptr %44, align 1, !tbaa !13
  tail call void @_ZN4Luau7CodeGen3X6418AssemblyBuilderX6414placeModRegMemENS1_10OperandX64Ehi(ptr noundef nonnull align 8 dereferenceable(252) %0, i64 %1, i8 noundef zeroext %6, i32 noundef 1)
  %46 = trunc i64 %.sroa.1.0.extract.shift to i8
  %47 = load ptr, ptr %43, align 8, !tbaa !51
  %48 = getelementptr inbounds nuw i8, ptr %47, i64 1
  store ptr %48, ptr %43, align 8, !tbaa !51
  store i8 %46, ptr %47, align 1, !tbaa !13
  br label %62

49:                                               ; preds = %_ZN4Luau7CodeGen3X6418AssemblyBuilderX648placeRexENS1_10OperandX64E.exit
  %50 = add i32 %.sroa.1.0.extract.trunc, -128
  %51 = icmp ult i32 %50, -256
  %.not = icmp eq i8 %4, %5
  %or.cond = or i1 %51, %.not
  %52 = getelementptr inbounds nuw i8, ptr %0, i64 232
  %53 = load ptr, ptr %52, align 8, !tbaa !51
  %54 = getelementptr inbounds nuw i8, ptr %53, i64 1
  store ptr %54, ptr %52, align 8, !tbaa !51
  br i1 %or.cond, label %59, label %55

55:                                               ; preds = %49
  store i8 %5, ptr %53, align 1, !tbaa !13
  tail call void @_ZN4Luau7CodeGen3X6418AssemblyBuilderX6414placeModRegMemENS1_10OperandX64Ehi(ptr noundef nonnull align 8 dereferenceable(252) %0, i64 %1, i8 noundef zeroext %6, i32 noundef 1)
  %56 = trunc i64 %.sroa.1.0.extract.shift to i8
  %57 = load ptr, ptr %52, align 8, !tbaa !51
  %58 = getelementptr inbounds nuw i8, ptr %57, i64 1
  store ptr %58, ptr %52, align 8, !tbaa !51
  store i8 %56, ptr %57, align 1, !tbaa !13
  br label %62

59:                                               ; preds = %49
  store i8 %4, ptr %53, align 1, !tbaa !13
  tail call void @_ZN4Luau7CodeGen3X6418AssemblyBuilderX6414placeModRegMemENS1_10OperandX64Ehi(ptr noundef nonnull align 8 dereferenceable(252) %0, i64 %1, i8 noundef zeroext %6, i32 noundef 4)
  %60 = load ptr, ptr %52, align 8, !tbaa !51
  store i32 %.sroa.1.0.extract.trunc, ptr %60, align 1
  %61 = getelementptr inbounds nuw i8, ptr %60, i64 4
  store ptr %61, ptr %52, align 8, !tbaa !51
  br label %62

62:                                               ; preds = %55, %59, %42
  %63 = getelementptr inbounds nuw i8, ptr %0, i64 248
  %64 = load i32, ptr %63, align 8, !tbaa !63
  %65 = add i32 %64, 1
  store i32 %65, ptr %63, align 8, !tbaa !63
  %66 = getelementptr inbounds nuw i8, ptr %0, i64 240
  %67 = load ptr, ptr %66, align 8, !tbaa !52
  %68 = getelementptr inbounds nuw i8, ptr %0, i64 232
  %69 = load ptr, ptr %68, align 8, !tbaa !51
  %70 = ptrtoint ptr %67 to i64
  %71 = ptrtoint ptr %69 to i64
  %72 = sub i64 %70, %71
  %73 = and i64 %72, 4294967280
  %74 = icmp eq i64 %73, 0
  br i1 %74, label %75, label %_ZN4Luau7CodeGen3X6418AssemblyBuilderX646commitEv.exit

75:                                               ; preds = %62
  tail call void @_ZN4Luau7CodeGen3X6418AssemblyBuilderX646extendEv(ptr noundef nonnull align 8 dereferenceable(252) %0)
  br label %_ZN4Luau7CodeGen3X6418AssemblyBuilderX646commitEv.exit

_ZN4Luau7CodeGen3X6418AssemblyBuilderX646commitEv.exit: ; preds = %62, %75
  ret void
}